target datalayout = "e-m:e-p270:32:32-p271:32:32-p272:64:64-i64:64-i128:128-f80:128-n8:16:32:64-S128"
target triple = "x86_64-pc-linux-gnu"

%"class.btInverseDynamicsBullet3::MultiBodyTree" = type { i8, i8, i8, ptr, ptr }

; Function Attrs: inlinehint mustprogress nounwind uwtable
define linkonce_odr dso_local void @_ZN24btInverseDynamicsBullet313MultiBodyTree9InitCachedlEPv(ptr noundef %0) #5 comdat align 2 personality ptr @__gxx_personality_v0 {
  %2 = alloca ptr, align 8
  store ptr %0, ptr %2, align 8, !tbaa !25
  %3 = load ptr, ptr %2, align 8, !tbaa !25
  invoke void @_Z21b3AlignedFreeInternalPv(ptr noundef %3)
          to label %4 unwind label %5

4:                                                ; preds = %1
  ret void

5:                                                ; preds = %1
  %6 = landingpad { ptr, i32 }
          catch ptr null
  %7 = extractvalue { ptr, i32 } %6, 0
  call void @__clang_call_terminate(ptr %7) #13
  unreachable
}

; Function Attrs: inlinehint mustprogress uwtable
define linkonce_odr dso_local noundef ptr @_ZN24btInverseDynamicsBullet313MultiBodyTree9InitCachenwEm(i64 noundef %0) #3 comdat align 2 {
  %2 = alloca i64, align 8
  store i64 %0, ptr %2, align 8, !tbaa !23
  %3 = load i64, ptr %2, align 8, !tbaa !23
  %4 = call noundef ptr @_Z22b3AlignedAllocInternalmi(i64 noundef %3, i32 noundef 16)
  ret ptr %4
}

; Function Attrs: mustprogress uwtable
define dso_local void @_ZN24btInverseDynamicsBullet313MultiBodyTreeC2Ev(ptr noundef nonnull align 8 dereferenceable(24) %0) unnamed_addr #2 align 2 personality ptr @__gxx_personality_v0 {
  %2 = alloca ptr, align 8
  %3 = alloca ptr, align 8
  %4 = alloca i32, align 4
  store ptr %0, ptr %2, align 8, !tbaa !12
  %5 = load ptr, ptr %2, align 8
  %6 = getelementptr inbounds nuw %"class.btInverseDynamicsBullet3::MultiBodyTree", ptr %5, i32 0, i32 0
  store i8 0, ptr %6, align 8, !tbaa !14
  %7 = getelementptr inbounds nuw %"class.btInverseDynamicsBullet3::MultiBodyTree", ptr %5, i32 0, i32 1
  store i8 1, ptr %7, align 1, !tbaa !19
  %8 = getelementptr inbounds nuw %"class.btInverseDynamicsBullet3::MultiBodyTree", ptr %5, i32 0, i32 2
  store i8 0, ptr %8, align 2, !tbaa !20
  %9 = getelementptr inbounds nuw %"class.btInverseDynamicsBullet3::MultiBodyTree", ptr %5, i32 0, i32 3
  store ptr null, ptr %9, align 8, !tbaa !21
  %10 = getelementptr inbounds nuw %"class.btInverseDynamicsBullet3::MultiBodyTree", ptr %5, i32 0, i32 4
  store ptr null, ptr %10, align 8, !tbaa !22
  %11 = call noundef ptr @_ZN24btInverseDynamicsBullet313MultiBodyTree9InitCachenwEm(i64 noundef 176)
  invoke void @_ZN24btInverseDynamicsBullet313MultiBodyTree9InitCacheC1Ev(ptr noundef nonnull align 8 dereferenceable(172) %11)
          to label %12 unwind label %14

12:                                               ; preds = %1
  %13 = getelementptr inbounds nuw %"class.btInverseDynamicsBullet3::MultiBodyTree", ptr %5, i32 0, i32 4
  store ptr %11, ptr %13, align 8, !tbaa !22
  ret void

14:                                               ; preds = %1
  %15 = landingpad { ptr, i32 }
          cleanup
  %16 = extractvalue { ptr, i32 } %15, 0
  store ptr %16, ptr %3, align 8
  %17 = extractvalue { ptr, i32 } %15, 1
  store i32 %17, ptr %4, align 4
  call void @_ZN24btInverseDynamicsBullet313MultiBodyTree9InitCachedlEPv(ptr noundef %11) #12
  br label %18

18:                                               ; preds = %14
  %19 = load ptr, ptr %3, align 8
  %20 = load i32, ptr %4, align 4
  %21 = insertvalue { ptr, i32 } poison, ptr %19, 0
  %22 = insertvalue { ptr, i32 } %21, i32 %20, 1
  resume { ptr, i32 } %22
}