; Function Attrs: mustprogress uwtable
define dso_local void @_ZN24btInverseDynamicsBullet313MultiBodyTreeC2Ev(ptr noundef nonnull writeonly align 8 captures(none) dereferenceable(24) initializes((0, 3), (8, 24)) %0) unnamed_addr #0 align 2 personality ptr @__gxx_personality_v0 {
  store i8 0, ptr %0, align 8, !tbaa !4
  %2 = getelementptr inbounds nuw i8, ptr %0, i64 1
  store i8 1, ptr %2, align 1, !tbaa !12
  %3 = getelementptr inbounds nuw i8, ptr %0, i64 2
  store i8 0, ptr %3, align 2, !tbaa !13
  %4 = getelementptr inbounds nuw i8, ptr %0, i64 8
  tail call void @llvm.memset.p0.i64(ptr noundef nonnull align 8 dereferenceable(16) %4, i8 0, i64 16, i1 false)
  %5 = tail call noundef ptr @_Z22b3AlignedAllocInternalmi(i64 noundef 176, i32 noundef 16)
  invoke void @_ZN24btInverseDynamicsBullet313MultiBodyTree9InitCacheC1Ev(ptr noundef nonnull align 8 dereferenceable(172) %5)
          to label %6 unwind label %8

6:                                                ; preds = %1
  %7 = getelementptr inbounds nuw i8, ptr %0, i64 16
  store ptr %5, ptr %7, align 8, !tbaa !14
  ret void

8:                                                ; preds = %1
  %9 = landingpad { ptr, i32 }
          cleanup
  invoke void @_Z21b3AlignedFreeInternalPv(ptr noundef nonnull %5)
          to label %_ZN24btInverseDynamicsBullet313MultiBodyTree9InitCachedlEPv.exit unwind label %10

10:                                               ; preds = %8
  %11 = landingpad { ptr, i32 }
          catch ptr null
  %12 = extractvalue { ptr, i32 } %11, 0
  tail call void @__clang_call_terminate(ptr %12) #14
  unreachable

_ZN24btInverseDynamicsBullet313MultiBodyTree9InitCachedlEPv.exit: ; preds = %8
  resume { ptr, i32 } %9
}